target datalayout = "e-m:e-p270:32:32-p271:32:32-p272:64:64-i64:64-i128:128-f80:128-n8:16:32:64-S128"
target triple = "x86_64-pc-linux-gnu"

%struct._e_guid_t = type { i32, i16, i16, [8 x i8] }
%struct.CFullPropSpec = type { %struct._e_guid_t, i32, %union.anon.2 }
%union.anon.2 = type { ptr }
%struct.__va_list_tag = type { i32, i32, ptr, ptr }

@hf_mswsp_cpidmapper_count = internal global i32 0, align 4
@ett_CPidMapper = internal global i32 0, align 4
@.str.1347 = private unnamed_addr constant [20 x i8] c"CPidMapper_PropSpec\00", align 1
@.str.1348 = private unnamed_addr constant [24 x i8] c"CPidMapper_PropSpec[%u]\00", align 1
@.str.1349 = private unnamed_addr constant [13 x i8] c"PropSpec[%u]\00", align 1

; Function Attrs: alwaysinline nounwind
define internal ptr @memset.inline(ptr %0, i32 %1, i64 %2) #8 {
  %4 = alloca ptr, align 8
  %5 = alloca i32, align 4
  %6 = alloca i64, align 8
  store ptr %0, ptr %4, align 8
  store i32 %1, ptr %5, align 4
  store i64 %2, ptr %6, align 8
  %7 = load ptr, ptr %4, align 8
  %8 = load i32, ptr %5, align 4
  %9 = load i64, ptr %6, align 8
  %10 = load ptr, ptr %4, align 8
  %11 = call i64 @llvm.objectsize.i64.p0(ptr %10, i1 false, i1 true, i1 true)
  %12 = call ptr @__memset_chk(ptr noundef %7, i32 noundef %8, i64 noundef %9, i64 noundef %11) #11
  ret ptr %12
}

; Function Attrs: null_pointer_is_valid sspstrong uwtable
define internal i32 @parse_CPidMapper(ptr noundef %0, i32 noundef %1, ptr noundef %2, ptr noundef %3, ptr noundef %4, ...) #0 {
  %6 = alloca ptr, align 8
  %7 = alloca i32, align 4
  %8 = alloca ptr, align 8
  %9 = alloca ptr, align 8
  %10 = alloca ptr, align 8
  %11 = alloca ptr, align 8
  %12 = alloca ptr, align 8
  %13 = alloca [1 x %struct.__va_list_tag], align 16
  %14 = alloca i32, align 4
  %15 = alloca i32, align 4
  %16 = alloca ptr, align 8
  %17 = alloca %struct.CFullPropSpec, align 8
  store ptr %0, ptr %6, align 8
  store i32 %1, ptr %7, align 4
  store ptr %2, ptr %8, align 8
  store ptr %3, ptr %9, align 8
  store ptr %4, ptr %10, align 8
  call void @llvm.lifetime.start.p0(i64 8, ptr %11) #11
  call void @llvm.lifetime.start.p0(i64 8, ptr %12) #11
  call void @llvm.lifetime.start.p0(i64 24, ptr %13) #11
  call void @llvm.lifetime.start.p0(i64 4, ptr %14) #11
  call void @llvm.lifetime.start.p0(i64 4, ptr %15) #11
  call void @llvm.lifetime.start.p0(i64 8, ptr %16) #11
  %18 = getelementptr inbounds [1 x %struct.__va_list_tag], ptr %13, i64 0, i64 0
  call void @llvm.va_start.p0(ptr %18)
  %19 = call ptr @wmem_packet_scope()
  %20 = load ptr, ptr %10, align 8
  %21 = getelementptr inbounds [1 x %struct.__va_list_tag], ptr %13, i64 0, i64 0
  %22 = call noalias ptr @wmem_strdup_vprintf(ptr noundef %19, ptr noundef %20, ptr noundef %21)
  store ptr %22, ptr %16, align 8
  %23 = getelementptr inbounds [1 x %struct.__va_list_tag], ptr %13, i64 0, i64 0
  call void @llvm.va_end.p0(ptr %23)
  %24 = load ptr, ptr %8, align 8
  %25 = load ptr, ptr %6, align 8
  %26 = load i32, ptr %7, align 4
  %27 = load i32, ptr @ett_CPidMapper, align 4
  %28 = load ptr, ptr %16, align 8
  %29 = call ptr @proto_tree_add_subtree(ptr noundef %24, ptr noundef %25, i32 noundef %26, i32 noundef 0, i32 noundef %27, ptr noundef %11, ptr noundef %28)
  store ptr %29, ptr %12, align 8
  %30 = load ptr, ptr %6, align 8
  %31 = load i32, ptr %7, align 4
  %32 = call i32 @tvb_get_letohl(ptr noundef %30, i32 noundef %31)
  store i32 %32, ptr %14, align 4
  %33 = load ptr, ptr %12, align 8
  %34 = load i32, ptr @hf_mswsp_cpidmapper_count, align 4
  %35 = load ptr, ptr %6, align 8
  %36 = load i32, ptr %7, align 4
  %37 = load i32, ptr %14, align 4
  %38 = call ptr @proto_tree_add_uint(ptr noundef %33, i32 noundef %34, ptr noundef %35, i32 noundef %36, i32 noundef 4, i32 noundef %37)
  %39 = load i32, ptr %7, align 4
  %40 = add i32 %39, 4
  store i32 %40, ptr %7, align 4
  %41 = load ptr, ptr %6, align 8
  %42 = load i32, ptr %7, align 4
  %43 = load ptr, ptr %9, align 8
  %44 = call i32 (ptr, i32, i32, ptr, ptr, ...) @parse_padding(ptr noundef %41, i32 noundef %42, i32 noundef 8, ptr noundef %43, ptr noundef @.str.1347)
  store i32 %44, ptr %7, align 4
  store i32 0, ptr %15, align 4
  br label %45

45:                                               ; preds = %62, %5
  %46 = load i32, ptr %15, align 4
  %47 = load i32, ptr %14, align 4
  %48 = icmp ult i32 %46, %47
  br i1 %48, label %49, label %65

49:                                               ; preds = %45
  call void @llvm.lifetime.start.p0(i64 32, ptr %17) #11
  %50 = call ptr @memset.inline(ptr noundef %17, i32 noundef 0, i64 noundef 32) #11
  %51 = load ptr, ptr %6, align 8
  %52 = load i32, ptr %7, align 4
  %53 = load ptr, ptr %9, align 8
  %54 = load i32, ptr %15, align 4
  %55 = call i32 (ptr, i32, i32, ptr, ptr, ...) @parse_padding(ptr noundef %51, i32 noundef %52, i32 noundef 4, ptr noundef %53, ptr noundef @.str.1348, i32 noundef %54)
  store i32 %55, ptr %7, align 4
  %56 = load ptr, ptr %6, align 8
  %57 = load i32, ptr %7, align 4
  %58 = load ptr, ptr %12, align 8
  %59 = load ptr, ptr %9, align 8
  %60 = load i32, ptr %15, align 4
  %61 = call i32 (ptr, i32, ptr, ptr, ptr, ptr, ...) @parse_CFullPropSpec(ptr noundef %56, i32 noundef %57, ptr noundef %58, ptr noundef %59, ptr noundef %17, ptr noundef @.str.1349, i32 noundef %60)
  store i32 %61, ptr %7, align 4
  call void @llvm.lifetime.end.p0(i64 32, ptr %17) #11
  br label %62

62:                                               ; preds = %49
  %63 = load i32, ptr %15, align 4
  %64 = add i32 %63, 1
  store i32 %64, ptr %15, align 4
  br label %45, !llvm.loop !23

65:                                               ; preds = %45
  %66 = load ptr, ptr %11, align 8
  %67 = load ptr, ptr %6, align 8
  %68 = load i32, ptr %7, align 4
  call void @proto_item_set_end(ptr noundef %66, ptr noundef %67, i32 noundef %68)
  %69 = load i32, ptr %7, align 4
  call void @llvm.lifetime.end.p0(i64 8, ptr %16) #11
  call void @llvm.lifetime.end.p0(i64 4, ptr %15) #11
  call void @llvm.lifetime.end.p0(i64 4, ptr %14) #11
  call void @llvm.lifetime.end.p0(i64 24, ptr %13) #11
  call void @llvm.lifetime.end.p0(i64 8, ptr %12) #11
  call void @llvm.lifetime.end.p0(i64 8, ptr %11) #11
  ret i32 %69
}