; Function Attrs: null_pointer_is_valid sspstrong uwtable
define internal noundef i32 @parse_CPidMapper(ptr noundef %0, i32 noundef %1, ptr noundef %2, ptr noundef %3, ptr readnone captures(none) %4, ...) unnamed_addr #0 {
  %6 = alloca ptr, align 8
  %7 = alloca [1 x %struct.__va_list_tag], align 16
  %8 = alloca %struct.CFullPropSpec, align 8
  call void @llvm.lifetime.start.p0(i64 8, ptr nonnull %6) #11
  call void @llvm.lifetime.start.p0(i64 24, ptr nonnull %7) #11
  call void @llvm.va_start.p0(ptr nonnull %7)
  %9 = call ptr @wmem_packet_scope()
  %10 = call noalias ptr @wmem_strdup_vprintf(ptr noundef %9, ptr noundef nonnull @.str.1248, ptr noundef nonnull %7)
  call void @llvm.va_end.p0(ptr nonnull %7)
  %11 = load i32, ptr @ett_CPidMapper, align 4
  %12 = call ptr @proto_tree_add_subtree(ptr noundef %2, ptr noundef %0, i32 noundef %1, i32 noundef 0, i32 noundef %11, ptr noundef nonnull %6, ptr noundef %10)
  %13 = call i32 @tvb_get_letohl(ptr noundef %0, i32 noundef %1)
  %14 = load i32, ptr @hf_mswsp_cpidmapper_count, align 4
  %15 = call ptr @proto_tree_add_uint(ptr noundef %12, i32 noundef %14, ptr noundef %0, i32 noundef %1, i32 noundef 4, i32 noundef %13)
  %16 = add i32 %1, 4
  %17 = call i32 (ptr, i32, i32, ptr, ptr, ...) @parse_padding(ptr noundef %0, i32 noundef %16, i32 noundef 8, ptr noundef %3, ptr noundef nonnull @.str.1347)
  %.not = icmp eq i32 %13, 0
  br i1 %.not, label %._crit_edge, label %.lr.ph

.lr.ph:                                           ; preds = %5, %.lr.ph
  %.031 = phi i32 [ %19, %.lr.ph ], [ %17, %5 ]
  %.02930 = phi i32 [ %20, %.lr.ph ], [ 0, %5 ]
  call void @llvm.lifetime.start.p0(i64 32, ptr nonnull %8) #11
  call void @llvm.memset.p0.i64(ptr noundef nonnull align 8 dereferenceable(32) %8, i8 noundef 0, i64 noundef 32, i1 noundef false) #11
  %18 = call i32 (ptr, i32, i32, ptr, ptr, ...) @parse_padding(ptr noundef %0, i32 noundef %.031, i32 noundef 4, ptr noundef %3, ptr noundef nonnull @.str.1348, i32 noundef %.02930)
  %19 = call i32 (ptr, i32, ptr, ptr, ptr, ptr, ...) @parse_CFullPropSpec(ptr noundef %0, i32 noundef %18, ptr noundef %12, ptr noundef %3, ptr noundef nonnull %8, ptr noundef nonnull @.str.1349, i32 noundef %.02930)
  call void @llvm.lifetime.end.p0(i64 32, ptr nonnull %8) #11
  %20 = add nuw i32 %.02930, 1
  %exitcond.not = icmp eq i32 %20, %13
  br i1 %exitcond.not, label %._crit_edge, label %.lr.ph, !llvm.loop !24

._crit_edge:                                      ; preds = %.lr.ph, %5
  %.0.lcssa = phi i32 [ %17, %5 ], [ %19, %.lr.ph ]
  %21 = load ptr, ptr %6, align 8
  call void @proto_item_set_end(ptr noundef %21, ptr noundef %0, i32 noundef %.0.lcssa)
  call void @llvm.lifetime.end.p0(i64 24, ptr nonnull %7) #11
  call void @llvm.lifetime.end.p0(i64 8, ptr nonnull %6) #11
  ret i32 %.0.lcssa
}